; Function Attrs: nounwind uwtable
define zeroext range(i8 0, 2) i8 @l_List_beq___at_Lean_Core_instantiateTypeLevelParams___spec__8(ptr noundef %0, ptr noundef %1) local_unnamed_addr #1 {
  br label %3

3:                                                ; preds = %31, %2
  %.020 = phi ptr [ %1, %2 ], [ %39, %31 ]
  %.018 = phi ptr [ %0, %2 ], [ %35, %31 ]
  %4 = ptrtoint ptr %.018 to i64
  %5 = and i64 %4, 1
  %.not.i = icmp eq i64 %5, 0
  br i1 %.not.i, label %9, label %6

6:                                                ; preds = %3
  %7 = lshr i64 %4, 1
  %8 = trunc i64 %7 to i32
  br label %lean_obj_tag.exit

9:                                                ; preds = %3
  %10 = getelementptr i8, ptr %.018, i64 4
  %.val.i = load i32, ptr %10, align 4
  %11 = lshr i32 %.val.i, 24
  br label %lean_obj_tag.exit

lean_obj_tag.exit:                                ; preds = %6, %9
  %.0.i = phi i32 [ %8, %6 ], [ %11, %9 ]
  %12 = icmp eq i32 %.0.i, 0
  %13 = ptrtoint ptr %.020 to i64
  %14 = and i64 %13, 1
  %.not.i23 = icmp eq i64 %14, 0
  br i1 %12, label %15, label %23

15:                                               ; preds = %lean_obj_tag.exit
  br i1 %.not.i23, label %19, label %16

16:                                               ; preds = %15
  %17 = lshr i64 %13, 1
  %18 = trunc i64 %17 to i32
  br label %lean_obj_tag.exit26

19:                                               ; preds = %15
  %20 = getelementptr i8, ptr %.020, i64 4
  %.val.i25 = load i32, ptr %20, align 4
  %21 = lshr i32 %.val.i25, 24
  br label %lean_obj_tag.exit26

lean_obj_tag.exit26:                              ; preds = %16, %19
  %.0.i24 = phi i32 [ %18, %16 ], [ %21, %19 ]
  %22 = icmp eq i32 %.0.i24, 0
  %. = zext i1 %22 to i8
  br label %.loopexit

23:                                               ; preds = %lean_obj_tag.exit
  br i1 %.not.i23, label %27, label %24

24:                                               ; preds = %23
  %25 = lshr i64 %13, 1
  %26 = trunc i64 %25 to i32
  br label %lean_obj_tag.exit30

27:                                               ; preds = %23
  %28 = getelementptr i8, ptr %.020, i64 4
  %.val.i29 = load i32, ptr %28, align 4
  %29 = lshr i32 %.val.i29, 24
  br label %lean_obj_tag.exit30

lean_obj_tag.exit30:                              ; preds = %24, %27
  %.0.i28 = phi i32 [ %26, %24 ], [ %29, %27 ]
  %30 = icmp eq i32 %.0.i28, 0
  br i1 %30, label %.loopexit, label %31

31:                                               ; preds = %lean_obj_tag.exit30
  %32 = getelementptr inbounds nuw i8, ptr %.018, i64 8
  %33 = load ptr, ptr %32, align 8, !tbaa !9
  %34 = getelementptr inbounds nuw i8, ptr %.018, i64 16
  %35 = load ptr, ptr %34, align 8, !tbaa !9
  %36 = getelementptr inbounds nuw i8, ptr %.020, i64 8
  %37 = load ptr, ptr %36, align 8, !tbaa !9
  %38 = getelementptr inbounds nuw i8, ptr %.020, i64 16
  %39 = load ptr, ptr %38, align 8, !tbaa !9
  %40 = tail call zeroext i8 @lean_level_eq(ptr noundef %33, ptr noundef %37) #7
  %41 = icmp eq i8 %40, 0
  br i1 %41, label %.loopexit, label %3

.loopexit:                                        ; preds = %31, %lean_obj_tag.exit30, %lean_obj_tag.exit26
  %.1 = phi i8 [ %., %lean_obj_tag.exit26 ], [ 0, %lean_obj_tag.exit30 ], [ 0, %31 ]
  ret i8 %.1
}